target datalayout = "e-m:e-p270:32:32-p271:32:32-p272:64:64-i64:64-i128:128-f80:128-n8:16:32:64-S128"
target triple = "x86_64-pc-linux-gnu"

%struct.rb_id_table = type { i32, i32, i32, ptr }
%struct.rb_id_item = type { i32, i32, i64 }

; Function Attrs: inlinehint nounwind sspstrong uwtable
define internal void @ITEM_SET_KEY(ptr noundef %0, i32 noundef %1, i32 noundef %2) #4 {
  %4 = alloca ptr, align 8
  %5 = alloca i32, align 4
  %6 = alloca i32, align 4
  store ptr %0, ptr %4, align 8, !tbaa !61
  store i32 %1, ptr %5, align 4, !tbaa !21
  store i32 %2, ptr %6, align 4, !tbaa !21
  %7 = load i32, ptr %6, align 4, !tbaa !21
  %8 = load ptr, ptr %4, align 8, !tbaa !61
  %9 = getelementptr inbounds nuw %struct.rb_id_table, ptr %8, i32 0, i32 3
  %10 = load ptr, ptr %9, align 8, !tbaa !66
  %11 = load i32, ptr %5, align 4, !tbaa !21
  %12 = sext i32 %11 to i64
  %13 = getelementptr %struct.rb_id_item, ptr %10, i64 %12
  %14 = getelementptr inbounds nuw %struct.rb_id_item, ptr %13, i32 0, i32 0
  store i32 %7, ptr %14, align 8, !tbaa !74
  ret void
}

; Function Attrs: nounwind sspstrong uwtable
define internal i32 @hash_delete_index(ptr noundef %0, i32 noundef %1) #0 {
  %3 = alloca i32, align 4
  %4 = alloca ptr, align 8
  %5 = alloca i32, align 4
  store ptr %0, ptr %4, align 8, !tbaa !61
  store i32 %1, ptr %5, align 4, !tbaa !21
  %6 = load i32, ptr %5, align 4, !tbaa !21
  %7 = icmp sge i32 %6, 0
  br i1 %7, label %8, label %37

8:                                                ; preds = %2
  %9 = load ptr, ptr %4, align 8, !tbaa !61
  %10 = getelementptr inbounds nuw %struct.rb_id_table, ptr %9, i32 0, i32 3
  %11 = load ptr, ptr %10, align 8, !tbaa !66
  %12 = load i32, ptr %5, align 4, !tbaa !21
  %13 = sext i32 %12 to i64
  %14 = getelementptr %struct.rb_id_item, ptr %11, i64 %13
  %15 = getelementptr inbounds nuw %struct.rb_id_item, ptr %14, i32 0, i32 1
  %16 = load i32, ptr %15, align 4, !tbaa !75
  %17 = icmp ne i32 %16, 0
  br i1 %17, label %23, label %18

18:                                               ; preds = %8
  %19 = load ptr, ptr %4, align 8, !tbaa !61
  %20 = getelementptr inbounds nuw %struct.rb_id_table, ptr %19, i32 0, i32 2
  %21 = load i32, ptr %20, align 8, !tbaa !68
  %22 = add i32 %21, -1
  store i32 %22, ptr %20, align 8, !tbaa !68
  br label %23

23:                                               ; preds = %18, %8
  %24 = load ptr, ptr %4, align 8, !tbaa !61
  %25 = getelementptr inbounds nuw %struct.rb_id_table, ptr %24, i32 0, i32 1
  %26 = load i32, ptr %25, align 4, !tbaa !67
  %27 = add i32 %26, -1
  store i32 %27, ptr %25, align 4, !tbaa !67
  %28 = load ptr, ptr %4, align 8, !tbaa !61
  %29 = load i32, ptr %5, align 4, !tbaa !21
  call void @ITEM_SET_KEY(ptr noundef %28, i32 noundef %29, i32 noundef 0)
  %30 = load ptr, ptr %4, align 8, !tbaa !61
  %31 = getelementptr inbounds nuw %struct.rb_id_table, ptr %30, i32 0, i32 3
  %32 = load ptr, ptr %31, align 8, !tbaa !66
  %33 = load i32, ptr %5, align 4, !tbaa !21
  %34 = sext i32 %33 to i64
  %35 = getelementptr %struct.rb_id_item, ptr %32, i64 %34
  %36 = getelementptr inbounds nuw %struct.rb_id_item, ptr %35, i32 0, i32 2
  store i64 0, ptr %36, align 8, !tbaa !72
  store i32 1, ptr %3, align 4
  br label %38

37:                                               ; preds = %2
  store i32 0, ptr %3, align 4
  br label %38

38:                                               ; preds = %37, %23
  %39 = load i32, ptr %3, align 4
  ret i32 %39
}

; Function Attrs: nounwind sspstrong uwtable
define hidden void @rb_id_table_foreach_values(ptr noundef %0, ptr noundef %1, ptr noundef %2) #0 {
  %4 = alloca ptr, align 8
  %5 = alloca ptr, align 8
  %6 = alloca ptr, align 8
  %7 = alloca i32, align 4
  %8 = alloca i32, align 4
  %9 = alloca i32, align 4
  %10 = alloca i32, align 4
  store ptr %0, ptr %4, align 8, !tbaa !61
  store ptr %1, ptr %5, align 8, !tbaa !7
  store ptr %2, ptr %6, align 8, !tbaa !7
  call void @llvm.lifetime.start.p0(i64 4, ptr %7) #24
  call void @llvm.lifetime.start.p0(i64 4, ptr %8) #24
  %11 = load ptr, ptr %4, align 8, !tbaa !61
  %12 = getelementptr inbounds nuw %struct.rb_id_table, ptr %11, i32 0, i32 0
  %13 = load i32, ptr %12, align 8, !tbaa !63
  store i32 %13, ptr %8, align 4, !tbaa !21
  store i32 0, ptr %7, align 4, !tbaa !21
  br label %14

14:                                               ; preds = %56, %3
  %15 = load i32, ptr %7, align 4, !tbaa !21
  %16 = load i32, ptr %8, align 4, !tbaa !21
  %17 = icmp slt i32 %15, %16
  br i1 %17, label %18, label %59

18:                                               ; preds = %14
  %19 = load ptr, ptr %4, align 8, !tbaa !61
  %20 = getelementptr inbounds nuw %struct.rb_id_table, ptr %19, i32 0, i32 3
  %21 = load ptr, ptr %20, align 8, !tbaa !66
  %22 = load i32, ptr %7, align 4, !tbaa !21
  %23 = sext i32 %22 to i64
  %24 = getelementptr %struct.rb_id_item, ptr %21, i64 %23
  %25 = getelementptr inbounds nuw %struct.rb_id_item, ptr %24, i32 0, i32 0
  %26 = load i32, ptr %25, align 8, !tbaa !74
  %27 = icmp ne i32 %26, 0
  br i1 %27, label %28, label %55

28:                                               ; preds = %18
  call void @llvm.lifetime.start.p0(i64 4, ptr %9) #24
  %29 = load ptr, ptr %5, align 8, !tbaa !7
  %30 = load ptr, ptr %4, align 8, !tbaa !61
  %31 = getelementptr inbounds nuw %struct.rb_id_table, ptr %30, i32 0, i32 3
  %32 = load ptr, ptr %31, align 8, !tbaa !66
  %33 = load i32, ptr %7, align 4, !tbaa !21
  %34 = sext i32 %33 to i64
  %35 = getelementptr %struct.rb_id_item, ptr %32, i64 %34
  %36 = getelementptr inbounds nuw %struct.rb_id_item, ptr %35, i32 0, i32 2
  %37 = load i64, ptr %36, align 8, !tbaa !72
  %38 = load ptr, ptr %6, align 8, !tbaa !7
  %39 = call i32 %29(i64 noundef %37, ptr noundef %38)
  store i32 %39, ptr %9, align 4, !tbaa !21
  %40 = load i32, ptr %9, align 4, !tbaa !21
  %41 = icmp eq i32 %40, 2
  br i1 %41, label %42, label %46

42:                                               ; preds = %28
  %43 = load ptr, ptr %4, align 8, !tbaa !61
  %44 = load i32, ptr %7, align 4, !tbaa !21
  %45 = call i32 @hash_delete_index(ptr noundef %43, i32 noundef %44)
  br label %51

46:                                               ; preds = %28
  %47 = load i32, ptr %9, align 4, !tbaa !21
  %48 = icmp eq i32 %47, 1
  br i1 %48, label %49, label %50

49:                                               ; preds = %46
  store i32 1, ptr %10, align 4
  br label %52

50:                                               ; preds = %46
  br label %51

51:                                               ; preds = %50, %42
  store i32 0, ptr %10, align 4
  br label %52

52:                                               ; preds = %51, %49
  call void @llvm.lifetime.end.p0(i64 4, ptr %9) #24
  %53 = load i32, ptr %10, align 4
  switch i32 %53, label %60 [
    i32 0, label %54
  ]

54:                                               ; preds = %52
  br label %55

55:                                               ; preds = %54, %18
  br label %56

56:                                               ; preds = %55
  %57 = load i32, ptr %7, align 4, !tbaa !21
  %58 = add i32 %57, 1
  store i32 %58, ptr %7, align 4, !tbaa !21
  br label %14, !llvm.loop !78

59:                                               ; preds = %14
  store i32 0, ptr %10, align 4
  br label %60

60:                                               ; preds = %59, %52
  call void @llvm.lifetime.end.p0(i64 4, ptr %8) #24
  call void @llvm.lifetime.end.p0(i64 4, ptr %7) #24
  %61 = load i32, ptr %10, align 4
  switch i32 %61, label %63 [
    i32 0, label %62
    i32 1, label %62
  ]

62:                                               ; preds = %60, %60
  ret void

63:                                               ; preds = %60
  unreachable
}