; Function Attrs: nounwind sspstrong uwtable
define hidden void @rb_id_table_foreach_values(ptr noundef captures(none) %0, ptr noundef readonly captures(none) %1, ptr noundef %2) local_unnamed_addr #0 {
  %4 = load i32, ptr %0, align 8, !tbaa !82
  %5 = icmp sgt i32 %4, 0
  br i1 %5, label %.lr.ph, label %._crit_edge

.lr.ph:                                           ; preds = %3
  %6 = getelementptr inbounds nuw i8, ptr %0, i64 16
  %7 = getelementptr inbounds nuw i8, ptr %0, i64 8
  %8 = getelementptr inbounds nuw i8, ptr %0, i64 4
  %wide.trip.count = zext nneg i32 %4 to i64
  br label %9

9:                                                ; preds = %.lr.ph, %.critedge
  %indvars.iv = phi i64 [ 0, %.lr.ph ], [ %indvars.iv.next, %.critedge ]
  %10 = load ptr, ptr %6, align 8, !tbaa !85
  %11 = getelementptr %struct.rb_id_item, ptr %10, i64 %indvars.iv
  %12 = load i32, ptr %11, align 8, !tbaa !88
  %.not = icmp eq i32 %12, 0
  br i1 %.not, label %.critedge, label %13

13:                                               ; preds = %9
  %14 = getelementptr inbounds nuw i8, ptr %11, i64 8
  %15 = load i64, ptr %14, align 8, !tbaa !92
  %16 = tail call i32 %1(i64 noundef %15, ptr noundef %2) #19
  switch i32 %16, label %.critedge [
    i32 2, label %17
    i32 1, label %._crit_edge
  ]

17:                                               ; preds = %13
  %18 = load ptr, ptr %6, align 8, !tbaa !85
  %19 = getelementptr %struct.rb_id_item, ptr %18, i64 %indvars.iv, i32 1
  %20 = load i32, ptr %19, align 4, !tbaa !90
  %.not.i = icmp eq i32 %20, 0
  br i1 %.not.i, label %21, label %24

21:                                               ; preds = %17
  %22 = load i32, ptr %7, align 8, !tbaa !87
  %23 = add i32 %22, -1
  store i32 %23, ptr %7, align 8, !tbaa !87
  br label %24

24:                                               ; preds = %21, %17
  %25 = load i32, ptr %8, align 4, !tbaa !86
  %26 = add i32 %25, -1
  store i32 %26, ptr %8, align 4, !tbaa !86
  %27 = getelementptr %struct.rb_id_item, ptr %18, i64 %indvars.iv
  store i32 0, ptr %27, align 8, !tbaa !88
  %28 = getelementptr %struct.rb_id_item, ptr %18, i64 %indvars.iv, i32 2
  store i64 0, ptr %28, align 8, !tbaa !92
  br label %.critedge

.critedge:                                        ; preds = %24, %13, %9
  %indvars.iv.next = add nuw nsw i64 %indvars.iv, 1
  %exitcond.not = icmp eq i64 %indvars.iv.next, %wide.trip.count
  br i1 %exitcond.not, label %._crit_edge, label %9, !llvm.loop !97

._crit_edge:                                      ; preds = %13, %.critedge, %3
  ret void
}